target datalayout = "e-m:e-p270:32:32-p271:32:32-p272:64:64-i64:64-i128:128-f80:128-n8:16:32:64-S128"
target triple = "x86_64-pc-linux-gnu"

%struct.Curl_llist_node = type { ptr, ptr, ptr, ptr }
%struct.Curl_llist = type { ptr, ptr, ptr, i64 }
%struct.CookieInfo = type { [63 x %struct.Curl_llist], i64, i32, i32, i8 }
%struct.Cookie = type { %struct.Curl_llist_node, %struct.Curl_llist_node, ptr, ptr, ptr, ptr, ptr, i64, i32, i8 }

@Curl_cfree = external global ptr, align 8

; Function Attrs: nounwind uwtable
define internal void @freecookie(ptr noundef %0) #0 {
  %2 = alloca ptr, align 8
  store ptr %0, ptr %2, align 8, !tbaa !103
  %3 = load ptr, ptr @Curl_cfree, align 8, !tbaa !92
  %4 = load ptr, ptr %2, align 8, !tbaa !103
  %5 = getelementptr inbounds nuw %struct.Cookie, ptr %4, i32 0, i32 6
  %6 = load ptr, ptr %5, align 8, !tbaa !110
  call void %3(ptr noundef %6)
  %7 = load ptr, ptr @Curl_cfree, align 8, !tbaa !92
  %8 = load ptr, ptr %2, align 8, !tbaa !103
  %9 = getelementptr inbounds nuw %struct.Cookie, ptr %8, i32 0, i32 4
  %10 = load ptr, ptr %9, align 8, !tbaa !105
  call void %7(ptr noundef %10)
  %11 = load ptr, ptr @Curl_cfree, align 8, !tbaa !92
  %12 = load ptr, ptr %2, align 8, !tbaa !103
  %13 = getelementptr inbounds nuw %struct.Cookie, ptr %12, i32 0, i32 5
  %14 = load ptr, ptr %13, align 8, !tbaa !119
  call void %11(ptr noundef %14)
  %15 = load ptr, ptr @Curl_cfree, align 8, !tbaa !92
  %16 = load ptr, ptr %2, align 8, !tbaa !103
  %17 = getelementptr inbounds nuw %struct.Cookie, ptr %16, i32 0, i32 2
  %18 = load ptr, ptr %17, align 8, !tbaa !112
  call void %15(ptr noundef %18)
  %19 = load ptr, ptr @Curl_cfree, align 8, !tbaa !92
  %20 = load ptr, ptr %2, align 8, !tbaa !103
  %21 = getelementptr inbounds nuw %struct.Cookie, ptr %20, i32 0, i32 3
  %22 = load ptr, ptr %21, align 8, !tbaa !113
  call void %19(ptr noundef %22)
  %23 = load ptr, ptr @Curl_cfree, align 8, !tbaa !92
  %24 = load ptr, ptr %2, align 8, !tbaa !103
  call void %23(ptr noundef %24)
  ret void
}

; Function Attrs: nounwind uwtable
define hidden void @Curl_cookie_clearsess(ptr noundef %0) #0 {
  %2 = alloca ptr, align 8
  %3 = alloca i32, align 4
  %4 = alloca i32, align 4
  %5 = alloca ptr, align 8
  %6 = alloca ptr, align 8
  %7 = alloca ptr, align 8
  store ptr %0, ptr %2, align 8, !tbaa !81
  call void @llvm.lifetime.start.p0(i64 4, ptr %3) #6
  %8 = load ptr, ptr %2, align 8, !tbaa !81
  %9 = icmp ne ptr %8, null
  br i1 %9, label %11, label %10

10:                                               ; preds = %1
  store i32 1, ptr %4, align 4
  br label %49

11:                                               ; preds = %1
  store i32 0, ptr %3, align 4, !tbaa !93
  br label %12

12:                                               ; preds = %45, %11
  %13 = load i32, ptr %3, align 4, !tbaa !93
  %14 = icmp ult i32 %13, 63
  br i1 %14, label %15, label %48

15:                                               ; preds = %12
  call void @llvm.lifetime.start.p0(i64 8, ptr %5) #6
  %16 = load ptr, ptr %2, align 8, !tbaa !81
  %17 = getelementptr inbounds nuw %struct.CookieInfo, ptr %16, i32 0, i32 0
  %18 = load i32, ptr %3, align 4, !tbaa !93
  %19 = zext i32 %18 to i64
  %20 = getelementptr inbounds nuw [63 x %struct.Curl_llist], ptr %17, i64 0, i64 %19
  %21 = call ptr @Curl_llist_head(ptr noundef %20)
  store ptr %21, ptr %5, align 8, !tbaa !123
  call void @llvm.lifetime.start.p0(i64 8, ptr %6) #6
  store ptr null, ptr %6, align 8, !tbaa !123
  br label %22

22:                                               ; preds = %42, %15
  %23 = load ptr, ptr %5, align 8, !tbaa !123
  %24 = icmp ne ptr %23, null
  br i1 %24, label %25, label %44

25:                                               ; preds = %22
  call void @llvm.lifetime.start.p0(i64 8, ptr %7) #6
  %26 = load ptr, ptr %5, align 8, !tbaa !123
  %27 = call ptr @Curl_node_elem(ptr noundef %26)
  store ptr %27, ptr %7, align 8, !tbaa !103
  %28 = load ptr, ptr %5, align 8, !tbaa !123
  %29 = call ptr @Curl_node_next(ptr noundef %28)
  store ptr %29, ptr %6, align 8, !tbaa !123
  %30 = load ptr, ptr %7, align 8, !tbaa !103
  %31 = getelementptr inbounds nuw %struct.Cookie, ptr %30, i32 0, i32 7
  %32 = load i64, ptr %31, align 8, !tbaa !107
  %33 = icmp ne i64 %32, 0
  br i1 %33, label %41, label %34

34:                                               ; preds = %25
  %35 = load ptr, ptr %5, align 8, !tbaa !123
  call void @Curl_node_remove(ptr noundef %35)
  %36 = load ptr, ptr %7, align 8, !tbaa !103
  call void @freecookie(ptr noundef %36)
  %37 = load ptr, ptr %2, align 8, !tbaa !81
  %38 = getelementptr inbounds nuw %struct.CookieInfo, ptr %37, i32 0, i32 2
  %39 = load i32, ptr %38, align 8, !tbaa !114
  %40 = add i32 %39, -1
  store i32 %40, ptr %38, align 8, !tbaa !114
  br label %41

41:                                               ; preds = %34, %25
  call void @llvm.lifetime.end.p0(i64 8, ptr %7) #6
  br label %42

42:                                               ; preds = %41
  %43 = load ptr, ptr %6, align 8, !tbaa !123
  store ptr %43, ptr %5, align 8, !tbaa !123
  br label %22, !llvm.loop !139

44:                                               ; preds = %22
  call void @llvm.lifetime.end.p0(i64 8, ptr %6) #6
  call void @llvm.lifetime.end.p0(i64 8, ptr %5) #6
  br label %45

45:                                               ; preds = %44
  %46 = load i32, ptr %3, align 4, !tbaa !93
  %47 = add i32 %46, 1
  store i32 %47, ptr %3, align 4, !tbaa !93
  br label %12, !llvm.loop !140

48:                                               ; preds = %12
  store i32 0, ptr %4, align 4
  br label %49

49:                                               ; preds = %48, %10
  call void @llvm.lifetime.end.p0(i64 4, ptr %3) #6
  %50 = load i32, ptr %4, align 4
  switch i32 %50, label %52 [
    i32 0, label %51
    i32 1, label %51
  ]

51:                                               ; preds = %49, %49
  ret void

52:                                               ; preds = %49
  unreachable
}