; Function Attrs: nounwind uwtable
define hidden void @Curl_cookie_clearsess(ptr noundef %0) local_unnamed_addr #0 {
  %.not = icmp eq ptr %0, null
  br i1 %.not, label %.loopexit, label %.preheader

.preheader:                                       ; preds = %1
  %2 = getelementptr inbounds nuw i8, ptr %0, i64 2024
  br label %3

3:                                                ; preds = %.preheader, %._crit_edge
  %indvars.iv = phi i64 [ 0, %.preheader ], [ %indvars.iv.next, %._crit_edge ]
  %4 = getelementptr inbounds nuw [63 x %struct.Curl_llist], ptr %0, i64 0, i64 %indvars.iv
  %5 = tail call ptr @Curl_llist_head(ptr noundef nonnull %4) #12
  %.not1416 = icmp eq ptr %5, null
  br i1 %.not1416, label %._crit_edge, label %.lr.ph

.lr.ph:                                           ; preds = %3, %29
  %.01217 = phi ptr [ %7, %29 ], [ %5, %3 ]
  %6 = tail call ptr @Curl_node_elem(ptr noundef nonnull %.01217) #12
  %7 = tail call ptr @Curl_node_next(ptr noundef nonnull %.01217) #12
  %8 = getelementptr inbounds nuw i8, ptr %6, i64 104
  %9 = load i64, ptr %8, align 8, !tbaa !103
  %.not15 = icmp eq i64 %9, 0
  br i1 %.not15, label %10, label %29

10:                                               ; preds = %.lr.ph
  tail call void @Curl_node_remove(ptr noundef nonnull %.01217) #12
  %11 = load ptr, ptr @Curl_cfree, align 8, !tbaa !84
  %12 = getelementptr inbounds nuw i8, ptr %6, i64 96
  %13 = load ptr, ptr %12, align 8, !tbaa !106
  tail call void %11(ptr noundef %13) #12
  %14 = load ptr, ptr @Curl_cfree, align 8, !tbaa !84
  %15 = getelementptr inbounds nuw i8, ptr %6, i64 80
  %16 = load ptr, ptr %15, align 8, !tbaa !102
  tail call void %14(ptr noundef %16) #12
  %17 = load ptr, ptr @Curl_cfree, align 8, !tbaa !84
  %18 = getelementptr inbounds nuw i8, ptr %6, i64 88
  %19 = load ptr, ptr %18, align 8, !tbaa !101
  tail call void %17(ptr noundef %19) #12
  %20 = load ptr, ptr @Curl_cfree, align 8, !tbaa !84
  %21 = getelementptr inbounds nuw i8, ptr %6, i64 64
  %22 = load ptr, ptr %21, align 8, !tbaa !98
  tail call void %20(ptr noundef %22) #12
  %23 = load ptr, ptr @Curl_cfree, align 8, !tbaa !84
  %24 = getelementptr inbounds nuw i8, ptr %6, i64 72
  %25 = load ptr, ptr %24, align 8, !tbaa !108
  tail call void %23(ptr noundef %25) #12
  %26 = load ptr, ptr @Curl_cfree, align 8, !tbaa !84
  tail call void %26(ptr noundef nonnull %6) #12
  %27 = load i32, ptr %2, align 8, !tbaa !114
  %28 = add i32 %27, -1
  store i32 %28, ptr %2, align 8, !tbaa !114
  br label %29

29:                                               ; preds = %10, %.lr.ph
  %.not14 = icmp eq ptr %7, null
  br i1 %.not14, label %._crit_edge, label %.lr.ph, !llvm.loop !126

._crit_edge:                                      ; preds = %29, %3
  %indvars.iv.next = add nuw nsw i64 %indvars.iv, 1
  %exitcond.not = icmp eq i64 %indvars.iv.next, 63
  br i1 %exitcond.not, label %.loopexit, label %3, !llvm.loop !127

.loopexit:                                        ; preds = %._crit_edge, %1
  ret void
}